(lp0
(cnumpy.core.multiarray
scalar
p1
(cnumpy
dtype
p2
(S'i8'
p3
I0
I1
tp4
Rp5
(I3
S'<'
p6
NNNI-1
I-1
I0
tp7
bS'\t\x00\x00\x00\x00\x00\x00\x00'
p8
tp9
Rp10
S'academic'
p11
S'acedemic'
p12
S'and'
p13
I00
tp14
a(g1
(g5
S'\x1e\x00\x00\x00\x00\x00\x00\x00'
p15
tp16
Rp17
S'accordance'
p18
S'acordance'
p19
S'accordance'
p20
I01
tp21
a(g1
(g5
S'l\x00\x00\x00\x00\x00\x00\x00'
p22
tp23
Rp24
S'and'
p25
S'anf'
p26
S'and'
p27
I01
tp28
a(g1
(g5
S't\x00\x00\x00\x00\x00\x00\x00'
p29
tp30
Rp31
S'annoying'
p32
S'anoying'
p33
S'knowing'
p34
I00
tp35
a(g1
(g5
S'x\x00\x00\x00\x00\x00\x00\x00'
p36
tp37
Rp38
S'answering'
p39
S'aswering'
p40
S'answering'
p41
I01
tp42
a(g1
(g5
S'\x86\x00\x00\x00\x00\x00\x00\x00'
p43
tp44
Rp45
S'appearing'
p46
S'appearin'
p47
S'appeared'
p48
I00
tp49
a(g1
(g5
S'\x8c\x00\x00\x00\x00\x00\x00\x00'
p50
tp51
Rp52
S'applying'
p53
S'applieing'
p54
S'applying'
p55
I01
tp56
a(g1
(g5
S'\x97\x00\x00\x00\x00\x00\x00\x00'
p57
tp58
Rp59
S'appropriate'
p60
S'apprpriate'
p61
S'appreciate'
p62
I00
tp63
a(g1
(g5
S'\x9c\x00\x00\x00\x00\x00\x00\x00'
p64
tp65
Rp66
S'approximately'
p67
S'approximatly'
p68
S'approximate'
p69
I00
tp70
a(g1
(g5
S'\xa0\x00\x00\x00\x00\x00\x00\x00'
p71
tp72
Rp73
S'are'
p74
S'arte'
p75
S'are'
p76
I01
tp77
a(g1
(g5
S'\xa2\x00\x00\x00\x00\x00\x00\x00'
p78
tp79
Rp80
S'arguments'
p81
S'arguements'
p82
S'arguments'
p83
I01
tp84
a(g1
(g5
S'\xa6\x00\x00\x00\x00\x00\x00\x00'
p85
tp86
Rp87
S'arrangement'
p88
S'arragment'
p89
S'fragment'
p90
I00
tp91
a(g1
(g5
S'\xd2\x00\x00\x00\x00\x00\x00\x00'
p92
tp93
Rp94
S'bargaining'
p95
S'baragining'
p96
S'beginning'
p97
I00
tp98
a(g1
(g5
S'\xdf\x00\x00\x00\x00\x00\x00\x00'
p99
tp100
Rp101
S'believe'
p102
S'beleive'
p103
S'believe'
p104
I01
tp105
a(g1
(g5
S'\xe4\x00\x00\x00\x00\x00\x00\x00'
p106
tp107
Rp108
S'beneficial'
p109
S'benficial'
p110
S'beneficial'
p111
I01
tp112
a(g1
(g5
S'\x1c\x01\x00\x00\x00\x00\x00\x00'
p113
tp114
Rp115
S'category'
p116
S'catagorey'
p117
S'the'
p118
I00
tp119
a(g1
(g5
S'5\x01\x00\x00\x00\x00\x00\x00'
p120
tp121
Rp122
S'clerk'
p123
S'clerck'
p124
S'clock'
p125
I00
tp126
a(g1
(g5
S'8\x01\x00\x00\x00\x00\x00\x00'
p127
tp128
Rp129
S'coalesced'
p130
S'coalesed'
p131
S'called'
p132
I00
tp133
a(g1
(g5
S'@\x01\x00\x00\x00\x00\x00\x00'
p134
tp135
Rp136
S'collateral'
p137
S'calateral'
p138
S'collateral'
p139
I01
tp140
a(g1
(g5
S'G\x01\x00\x00\x00\x00\x00\x00'
p141
tp142
Rp143
S'comments'
p144
S'coments'
p145
S'moments'
p146
I00
tp147
a(g1
(g5
S'U\x01\x00\x00\x00\x00\x00\x00'
p148
tp149
Rp150
S'communication'
p151
S'communcation'
p152
S'communication'
p153
I01
tp154
a(g1
(g5
S'`\x01\x00\x00\x00\x00\x00\x00'
p155
tp156
Rp157
S'competent'
p158
S'compitent'
p159
S'competent'
p160
I01
tp161
a(g1
(g5
S'c\x01\x00\x00\x00\x00\x00\x00'
p162
tp163
Rp164
S'complimentary'
p165
S'complementary'
p166
S'complimentary'
p167
I01
tp168
a(g1
(g5
S'd\x01\x00\x00\x00\x00\x00\x00'
p169
tp170
Rp171
S'component'
p172
S'componant'
p173
S'company'
p174
I00
tp175
a(g1
(g5
S'w\x01\x00\x00\x00\x00\x00\x00'
p176
tp177
Rp178
S'connoisseurs'
p179
S'connoiseurs'
p180
S'-'
p181
I00
tp182
a(g1
(g5
S'x\x01\x00\x00\x00\x00\x00\x00'
p183
tp184
Rp185
S'conscience'
p186
S'concience'
p187
S'confidence'
p188
I00
tp189
a(g1
(g5
S'\x9f\x01\x00\x00\x00\x00\x00\x00'
p190
tp191
Rp192
S'corduroy'
p193
S'corderoy'
p194
S'order'
p195
I00
tp196
a(g1
(g5
S'\xcd\x01\x00\x00\x00\x00\x00\x00'
p197
tp198
Rp199
S'degradation'
p200
S'degredation'
p201
S'degradation'
p202
I01
tp203
a(g1
(g5
S'\x1f\x02\x00\x00\x00\x00\x00\x00'
p204
tp205
Rp206
S'drawing'
p207
S'drawin'
p208
S'drawn'
p209
I00
tp210
a(g1
(g5
S'5\x02\x00\x00\x00\x00\x00\x00'
p211
tp212
Rp213
S'effeciently'
p214
S'efficiently'
p215
S'sufficiently'
p216
I00
tp217
a(g1
(g5
S'_\x02\x00\x00\x00\x00\x00\x00'
p218
tp219
Rp220
S'enough'
p221
S'enugh'
p222
S'enough'
p223
I01
tp224
a(g1
(g5
S'`\x02\x00\x00\x00\x00\x00\x00'
p225
tp226
Rp227
S'environment'
p228
S'enviroment'
p229
S'environment'
p230
I01
tp231
a(g1
(g5
S'g\x02\x00\x00\x00\x00\x00\x00'
p232
tp233
Rp234
S'equivalent'
p235
S'equivelant'
p236
S'equivalent'
p237
I01
tp238
a(g1
(g5
S'y\x02\x00\x00\x00\x00\x00\x00'
p239
tp240
Rp241
S'example'
p242
S'exmple'
p243
S'example'
p244
I01
tp245
a(g1
(g5
S'\x7f\x02\x00\x00\x00\x00\x00\x00'
p246
tp247
Rp248
S'executed'
p249
S'executted'
p250
S'executed'
p251
I01
tp252
a(g1
(g5
S'\x9d\x02\x00\x00\x00\x00\x00\x00'
p253
tp254
Rp255
S'fairly'
p256
S'fairlu'
p257
S'fair'
p258
I00
tp259
a(g1
(g5
S'\xb1\x02\x00\x00\x00\x00\x00\x00'
p260
tp261
Rp262
S'figure'
p263
S'figuar'
p264
S'figure'
p265
I01
tp266
a(g1
(g5
S'\xb2\x02\x00\x00\x00\x00\x00\x00'
p267
tp268
Rp269
S'figures'
p270
S'figuars'
p271
S'figures'
p272
I01
tp273
a(g1
(g5
S'\xc9\x02\x00\x00\x00\x00\x00\x00'
p274
tp275
Rp276
S'frescos'
p277
S'frescoes'
p278
S'frescoes'
p279
I00
tp280
a(g1
(g5
S'\xd2\x02\x00\x00\x00\x00\x00\x00'
p281
tp282
Rp283
S'further'
p284
S'futher'
p285
S'father'
p286
I00
tp287
a(g1
(g5
S'\xe0\x02\x00\x00\x00\x00\x00\x00'
p288
tp289
Rp290
S'gone'
p291
S'gonne'
p292
S'one'
p293
I00
tp294
a(g1
(g5
S'E\x03\x00\x00\x00\x00\x00\x00'
p295
tp296
Rp297
S'individual'
p298
S'individula'
p299
S'individual'
p300
I01
tp301
a(g1
(g5
S'J\x03\x00\x00\x00\x00\x00\x00'
p302
tp303
Rp304
S'inefficient'
p305
S'innefficient'
p306
S'insufficient'
p307
I00
tp308
a(g1
(g5
S'R\x03\x00\x00\x00\x00\x00\x00'
p309
tp310
Rp311
S'informations'
p312
S'information'
p313
S'information'
p314
I00
tp315
a(g1
(g5
S'^\x03\x00\x00\x00\x00\x00\x00'
p316
tp317
Rp318
S'instead'
p319
S'insted'
p320
S'indeed'
p321
I00
tp322
a(g1
(g5
S'r\x03\x00\x00\x00\x00\x00\x00'
p323
tp324
Rp325
S'involving'
p326
S'invlving'
p327
S'nothing'
p328
I00
tp329
a(g1
(g5
S't\x03\x00\x00\x00\x00\x00\x00'
p330
tp331
Rp332
S'irrelevant'
p333
S'irrevelant'
p334
S'prevent'
p335
I00
tp336
a(g1
(g5
S'u\x03\x00\x00\x00\x00\x00\x00'
p337
tp338
Rp339
S'irreparable'
p340
S'irrepairable'
p341
S'inseparable'
p342
I00
tp343
a(g1
(g5
S'v\x03\x00\x00\x00\x00\x00\x00'
p344
tp345
Rp346
S'irresistible'
p347
S'irristible'
p348
S'irresistible'
p349
I01
tp350
a(g1
(g5
S'\x81\x03\x00\x00\x00\x00\x00\x00'
p351
tp352
Rp353
S'jurisdiction'
p354
S'juridiction'
p355
S'jurisdiction'
p356
I01
tp357
a(g1
(g5
S'\x9e\x03\x00\x00\x00\x00\x00\x00'
p358
tp359
Rp360
S'libraries'
p361
S'libraies'
p362
S'liberties'
p363
I00
tp364
a(g1
(g5
S'\xbe\x03\x00\x00\x00\x00\x00\x00'
p365
tp366
Rp367
S'magnificent'
p368
S'magnificient'
p369
S'magnificent'
p370
I01
tp371
a(g1
(g5
S'\xc2\x03\x00\x00\x00\x00\x00\x00'
p372
tp373
Rp374
S'maintenance'
p375
S'maintainance'
p376
S'maintenance'
p377
I01
tp378
a(g1
(g5
S'\xc5\x03\x00\x00\x00\x00\x00\x00'
p379
tp380
Rp381
S'manageable'
p382
S'managable'
p383
S'manage'
p384
I00
tp385
a(g1
(g5
S'\xca\x03\x00\x00\x00\x00\x00\x00'
p386
tp387
Rp388
S'manually'
p389
S'manualy'
p390
S'many'
p391
I00
tp392
a(g1
(g5
S'\xcd\x03\x00\x00\x00\x00\x00\x00'
p393
tp394
Rp395
S'masterpiece'
p396
S'masterpice'
p397
S'masterpiece'
p398
I01
tp399
a(g1
(g5
S'\xd3\x03\x00\x00\x00\x00\x00\x00'
p400
tp401
Rp402
S'mattress'
p403
S'matress'
p404
S'mates'
p405
I00
tp406
a(g1
(g5
S'\xe5\x03\x00\x00\x00\x00\x00\x00'
p407
tp408
Rp409
S'millionaire'
p410
S'millionnaire'
p411
S'millionaire'
p412
I01
tp413
a(g1
(g5
S'\xea\x03\x00\x00\x00\x00\x00\x00'
p414
tp415
Rp416
S'miscellaneous'
p417
S'miscelaneous'
p418
S'miscellaneous'
p419
I01
tp420
a(g1
(g5
S'\xec\x03\x00\x00\x00\x00\x00\x00'
p421
tp422
Rp423
S'misleading'
p424
S'missleading'
p425
S'misleading'
p426
I01
tp427
a(g1
(g5
S'4\x04\x00\x00\x00\x00\x00\x00'
p428
tp429
Rp430
S'occasionally'
p431
S'ocassionaly'
p432
S'occasionally'
p433
I01
tp434
a(g1
(g5
S'D\x04\x00\x00\x00\x00\x00\x00'
p435
tp436
Rp437
S'only'
p438
S'onlt'
p439
S'only'
p440
I01
tp441
a(g1
(g5
S'J\x04\x00\x00\x00\x00\x00\x00'
p442
tp443
Rp444
S'opinion'
p445
S'oppinion'
p446
S'opinion'
p447
I01
tp448
a(g1
(g5
S'P\x04\x00\x00\x00\x00\x00\x00'
p449
tp450
Rp451
S'opportunity'
p452
S'oppotunity'
p453
S'opportunity'
p454
I01
tp455
a(g1
(g5
S'Q\x04\x00\x00\x00\x00\x00\x00'
p456
tp457
Rp458
S'opposed'
p459
S'apposed'
p460
S'opposed'
p461
I01
tp462
a(g1
(g5
S'T\x04\x00\x00\x00\x00\x00\x00'
p463
tp464
Rp465
S'optician'
p466
S'opticion'
p467
S'opinion'
p468
I00
tp469
a(g1
(g5
S'e\x04\x00\x00\x00\x00\x00\x00'
p470
tp471
Rp472
S'output'
p473
S'ouput'
p474
S'out'
p475
I00
tp476
a(g1
(g5
S'n\x04\x00\x00\x00\x00\x00\x00'
p477
tp478
Rp479
S'pain'
p480
S'paine'
p481
S'and'
p482
I00
tp483
a(g1
(g5
S'o\x04\x00\x00\x00\x00\x00\x00'
p484
tp485
Rp486
S'pamphlet'
p487
S'pamphalet'
p488
S'that'
p489
I00
tp490
a(g1
(g5
S't\x04\x00\x00\x00\x00\x00\x00'
p491
tp492
Rp493
S'parallel'
p494
S'parellel'
p495
S'all'
p496
I00
tp497
a(g1
(g5
S'\x85\x04\x00\x00\x00\x00\x00\x00'
p498
tp499
Rp500
S'pavilion'
p501
S'pavillion'
p502
g181
I00
tp503
a(g1
(g5
S'\x86\x04\x00\x00\x00\x00\x00\x00'
p504
tp505
Rp506
S'peasant'
p507
S'peasent'
p508
S'present'
p509
I00
tp510
a(g1
(g5
S'\x8b\x04\x00\x00\x00\x00\x00\x00'
p511
tp512
Rp513
S'penguins'
p514
S'pengiuns'
p515
S'begins'
p516
I00
tp517
a(g1
(g5
S'\x93\x04\x00\x00\x00\x00\x00\x00'
p518
tp519
Rp520
S'perhaps'
p521
S'perhapse'
p522
S'perhaps'
p523
I01
tp524
a(g1
(g5
S'\x9f\x04\x00\x00\x00\x00\x00\x00'
p525
tp526
Rp527
S'perspiration'
p528
S'persperation'
p529
S'desperation'
p530
I00
tp531
a(g1
(g5
S'\xb0\x04\x00\x00\x00\x00\x00\x00'
p532
tp533
Rp534
S'pickerel'
p535
S'pickeral'
p536
S'picked'
p537
I00
tp538
a(g1
(g5
S'\xc1\x04\x00\x00\x00\x00\x00\x00'
p539
tp540
Rp541
S'politics'
p542
S'polatics'
p543
S'politics'
p544
I01
tp545
a(g1
(g5
S'\xcf\x04\x00\x00\x00\x00\x00\x00'
p546
tp547
Rp548
S'potentially'
p549
S'potentialy'
p550
g181
I00
tp551
a(g1
(g5
S'\xd3\x04\x00\x00\x00\x00\x00\x00'
p552
tp553
Rp554
S'prairie'
p555
S'prarie'
p556
S'are'
p557
I00
tp558
a(g1
(g5
S'\xd5\x04\x00\x00\x00\x00\x00\x00'
p559
tp560
Rp561
S'preceding'
p562
S'preceeding'
p563
S'proceeding'
p564
I00
tp565
a(g1
(g5
S'\xe5\x04\x00\x00\x00\x00\x00\x00'
p566
tp567
Rp568
S'preventive'
p569
S'preventative'
p570
S'presentation'
p571
I00
tp572
a(g1
(g5
S'\xfb\x04\x00\x00\x00\x00\x00\x00'
p573
tp574
Rp575
S'profession'
p576
S'preffeson'
p577
S'reason'
p578
I00
tp579
a(g1
(g5
S'6\x05\x00\x00\x00\x00\x00\x00'
p580
tp581
Rp582
S'reactions'
p583
S'reactioons'
p584
S'relations'
p585
I00
tp586
a(g1
(g5
S'H\x05\x00\x00\x00\x00\x00\x00'
p587
tp588
Rp589
S'receiving'
p590
S'recieving'
p591
S'receiving'
p592
I01
tp593
a(g1
(g5
S'Q\x05\x00\x00\x00\x00\x00\x00'
p594
tp595
Rp596
S'recommend'
p597
S'reccommend'
p598
S'recommend'
p599
I01
tp600
a(g1
(g5
S'X\x05\x00\x00\x00\x00\x00\x00'
p601
tp602
Rp603
S'recommended'
p604
S'recommend'
p605
S'recommend'
p606
I00
tp607
a(g1
(g5
S'i\x05\x00\x00\x00\x00\x00\x00'
p608
tp609
Rp610
S'referring'
p611
S'refering'
p612
S'referring'
p613
I01
tp614
a(g1
(g5
S'k\x05\x00\x00\x00\x00\x00\x00'
p615
tp616
Rp617
S'regained'
p618
S'regined'
p619
S'remained'
p620
I00
tp621
a(g1
(g5
S'm\x05\x00\x00\x00\x00\x00\x00'
p622
tp623
Rp624
S'registries'
p625
S'regsirties'
p626
S'besides'
p627
I00
tp628
a(g1
(g5
S'{\x05\x00\x00\x00\x00\x00\x00'
p629
tp630
Rp631
S'renegade'
p632
S'renagade'
p633
S'and'
p634
I00
tp635
a(g1
(g5
S'\x88\x05\x00\x00\x00\x00\x00\x00'
p636
tp637
Rp638
S'requested'
p639
S'rquested'
p640
S'requested'
p641
I01
tp642
a(g1
(g5
S'\x92\x05\x00\x00\x00\x00\x00\x00'
p643
tp644
Rp645
S'responsibilities'
p646
S'responsiblities'
p647
S'responsibilities'
p648
I01
tp649
a(g1
(g5
S'\x9a\x05\x00\x00\x00\x00\x00\x00'
p650
tp651
Rp652
S'retention'
p653
S'retentiaon'
p654
S'attention'
p655
I00
tp656
a(g1
(g5
S'\xc4\x05\x00\x00\x00\x00\x00\x00'
p657
tp658
Rp659
S'secretaries'
p660
S'secutaries'
p661
S'secure'
p662
I00
tp663
a(g1
(g5
S'\xca\x05\x00\x00\x00\x00\x00\x00'
p664
tp665
Rp666
S'seized'
p667
S'siezed'
p668
S'seemed'
p669
I00
tp670
a(g1
(g5
S'\xce\x05\x00\x00\x00\x00\x00\x00'
p671
tp672
Rp673
S'sell'
p674
S'selle'
p675
S'see'
p676
I00
tp677
a(g1
(g5
S'\xd6\x05\x00\x00\x00\x00\x00\x00'
p678
tp679
Rp680
S'separate'
p681
S'seporate'
p682
S'separate'
p683
I01
tp684
a(g1
(g5
S'\xd8\x05\x00\x00\x00\x00\x00\x00'
p685
tp686
Rp687
S'separated'
p688
S'seperated'
p689
S'separated'
p690
I01
tp691
a(g1
(g5
S'\xee\x05\x00\x00\x00\x00\x00\x00'
p692
tp693
Rp694
S'silhouette'
p695
S'silhuette'
p696
S'silence'
p697
I00
tp698
a(g1
(g5
S'\x05\x06\x00\x00\x00\x00\x00\x00'
p699
tp700
Rp701
S'solemn'
p702
S'solomn'
p703
S'solemn'
p704
I01
tp705
a.